; Function Attrs: null_pointer_is_valid sspstrong uwtable
define noundef zeroext i1 @wmem_map_contains(ptr noundef readonly captures(address_is_null) %0, ptr noundef %1) local_unnamed_addr #0 {
  %3 = icmp eq ptr %0, null
  br i1 %3, label %.loopexit, label %4

4:                                                ; preds = %2
  %5 = getelementptr inbounds nuw i8, ptr %0, i64 16
  %6 = load ptr, ptr %5, align 8
  %7 = icmp eq ptr %6, null
  br i1 %7, label %.loopexit, label %8

8:                                                ; preds = %4
  %9 = getelementptr inbounds nuw i8, ptr %0, i64 24
  %10 = load ptr, ptr %9, align 8
  %11 = tail call i32 %10(ptr noundef %1)
  %12 = load i32, ptr @x, align 4
  %13 = mul i32 %12, %11
  %14 = getelementptr inbounds nuw i8, ptr %0, i64 8
  %15 = load i64, ptr %14, align 8
  %16 = trunc i64 %15 to i32
  %17 = sub i32 32, %16
  %18 = lshr i32 %13, %17
  %19 = zext i32 %18 to i64
  %20 = getelementptr ptr, ptr %6, i64 %19
  %21 = getelementptr inbounds nuw i8, ptr %0, i64 32
  %.016 = load ptr, ptr %20, align 8
  %.not17 = icmp eq ptr %.016, null
  br i1 %.not17, label %.loopexit, label %.lr.ph

22:                                               ; preds = %.lr.ph
  %23 = getelementptr inbounds nuw i8, ptr %.018, i64 16
  %.0 = load ptr, ptr %23, align 8
  %.not = icmp eq ptr %.0, null
  br i1 %.not, label %.loopexit, label %.lr.ph, !llvm.loop !11

.lr.ph:                                           ; preds = %8, %22
  %.018 = phi ptr [ %.0, %22 ], [ %.016, %8 ]
  %24 = load ptr, ptr %21, align 8
  %25 = load ptr, ptr %.018, align 8
  %26 = tail call i32 %24(ptr noundef %1, ptr noundef %25)
  %.not15.not.not = icmp ne i32 %26, 0
  br i1 %.not15.not.not, label %.loopexit, label %22

.loopexit:                                        ; preds = %.lr.ph, %22, %8, %2, %4
  %.012 = phi i1 [ false, %4 ], [ false, %2 ], [ false, %8 ], [ %.not15.not.not, %22 ], [ %.not15.not.not, %.lr.ph ]
  ret i1 %.012
}